target datalayout = "e-m:e-p270:32:32-p271:32:32-p272:64:64-i64:64-i128:128-f80:128-n8:16:32:64-S128"
target triple = "x86_64-pc-linux-gnu"

%struct.expert_field = type { i32, i32 }

@hf_pfcp_nokia_detailed_stats_key = internal global i32 0, align 4
@hf_pfcp_nokia_detailed_stats_bitmap_item = internal global i32 0, align 4
@hf_pfcp_nokia_detailed_stats_octets = internal global i32 0, align 4
@ett_pfcp_nokia_detailed_stats_key = internal global i32 0, align 4
@ett_pfcp_nokia_detailed_stats_bitmap = internal global i32 0, align 4
@ei_pfcp_ie_encoding_error = internal global %struct.expert_field zeroinitializer, align 4
@dissect_pfcp_nokia_detailed_statistics.key = internal constant [5 x ptr] [ptr @hf_pfcp_nokia_detailed_stats_key_direction, ptr @hf_pfcp_nokia_detailed_stats_key_type, ptr @hf_pfcp_nokia_detailed_stats_key_object_id, ptr @hf_pfcp_nokia_detailed_stats_key_stat_mode, ptr null], align 16
@.str.2777 = private unnamed_addr constant [13 x i8] c"Counter info\00", align 1
@.str.2778 = private unnamed_addr constant [11 x i8] c"Counter %u\00", align 1
@.str.2779 = private unnamed_addr constant [12 x i8] c" - %s (%u) \00", align 1
@.str.2780 = private unnamed_addr constant [8 x i8] c"%s: %lu\00", align 1
@.str.2781 = private unnamed_addr constant [9 x i8] c" (empty)\00", align 1
@.str.2782 = private unnamed_addr constant [42 x i8] c" : %u %s %s counter%s (object %u mode %u)\00", align 1
@.str.2783 = private unnamed_addr constant [7 x i8] c"egress\00", align 1
@.str.2784 = private unnamed_addr constant [8 x i8] c"ingress\00", align 1
@.str.2785 = private unnamed_addr constant [8 x i8] c"policer\00", align 1
@.str.2786 = private unnamed_addr constant [6 x i8] c"queue\00", align 1
@.str.2787 = private unnamed_addr constant [1 x i8] zeroinitializer, align 1
@.str.2788 = private unnamed_addr constant [2 x i8] c"s\00", align 1

; Function Attrs: null_pointer_is_valid sspstrong uwtable
define internal i32 @dissect_pfcp_nokia_detailed_statistics(ptr noundef %0, ptr noundef %1, ptr noundef %2, ptr noundef %3) #0 {
  %5 = alloca ptr, align 8
  %6 = alloca ptr, align 8
  %7 = alloca ptr, align 8
  %8 = alloca ptr, align 8
  %9 = alloca i32, align 4
  %10 = alloca i64, align 8
  %11 = alloca i8, align 1
  %12 = alloca i8, align 1
  %13 = alloca ptr, align 8
  %14 = alloca ptr, align 8
  %15 = alloca i64, align 8
  %16 = alloca i32, align 4
  %17 = alloca i32, align 4
  %18 = alloca i32, align 4
  %19 = alloca i32, align 4
  %20 = alloca i8, align 1
  %21 = alloca i32, align 4
  %22 = alloca i8, align 1
  %23 = alloca i32, align 4
  %24 = alloca ptr, align 8
  %25 = alloca ptr, align 8
  %26 = alloca i32, align 4
  %27 = alloca ptr, align 8
  %28 = alloca i32, align 4
  %29 = alloca i64, align 8
  store ptr %0, ptr %5, align 8
  store ptr %1, ptr %6, align 8
  store ptr %2, ptr %7, align 8
  store ptr %3, ptr %8, align 8
  call void @llvm.lifetime.start.p0(i64 4, ptr %9) #13
  store i32 0, ptr %9, align 4
  call void @llvm.lifetime.start.p0(i64 8, ptr %10) #13
  %30 = load ptr, ptr %7, align 8
  %31 = load ptr, ptr %5, align 8
  %32 = load i32, ptr %9, align 4
  %33 = load i32, ptr @hf_pfcp_nokia_detailed_stats_key, align 4
  %34 = load i32, ptr @ett_pfcp_nokia_detailed_stats_key, align 4
  %35 = call ptr @proto_tree_add_bitmask_with_flags_ret_uint64(ptr noundef %30, ptr noundef %31, i32 noundef %32, i32 noundef %33, i32 noundef %34, ptr noundef @dissect_pfcp_nokia_detailed_statistics.key, i32 noundef 0, i32 noundef 0, ptr noundef %10)
  call void @llvm.lifetime.start.p0(i64 1, ptr %11) #13
  %36 = load i64, ptr %10, align 8
  %37 = and i64 %36, 2147483648
  %38 = icmp ne i64 %37, 0
  %39 = xor i1 %38, true
  %40 = xor i1 %39, true
  %41 = zext i1 %40 to i8
  store i8 %41, ptr %11, align 1
  call void @llvm.lifetime.start.p0(i64 1, ptr %12) #13
  %42 = load i64, ptr %10, align 8
  %43 = and i64 %42, 1073741824
  %44 = icmp ne i64 %43, 0
  %45 = xor i1 %44, true
  %46 = xor i1 %45, true
  %47 = zext i1 %46 to i8
  store i8 %47, ptr %12, align 1
  %48 = load i32, ptr %9, align 4
  %49 = add i32 %48, 4
  store i32 %49, ptr %9, align 4
  call void @llvm.lifetime.start.p0(i64 8, ptr %13) #13
  call void @llvm.lifetime.start.p0(i64 8, ptr %14) #13
  %50 = load ptr, ptr %7, align 8
  %51 = load ptr, ptr %5, align 8
  %52 = load i32, ptr %9, align 4
  %53 = load i32, ptr @ett_pfcp_nokia_detailed_stats_bitmap, align 4
  %54 = call ptr (ptr, ptr, i32, i32, i32, ptr, ptr, ...) @proto_tree_add_subtree_format(ptr noundef %50, ptr noundef %51, i32 noundef %52, i32 noundef 8, i32 noundef %53, ptr noundef %13, ptr noundef @.str.2777)
  store ptr %54, ptr %14, align 8
  call void @llvm.lifetime.start.p0(i64 8, ptr %15) #13
  %55 = load ptr, ptr %5, align 8
  %56 = load i32, ptr %9, align 4
  %57 = call i64 @tvb_get_ntoh64(ptr noundef %55, i32 noundef %56)
  store i64 %57, ptr %15, align 8
  call void @llvm.lifetime.start.p0(i64 4, ptr %16) #13
  %58 = load i32, ptr %9, align 4
  store i32 %58, ptr %16, align 4
  %59 = load i32, ptr %9, align 4
  %60 = add i32 %59, 8
  store i32 %60, ptr %9, align 4
  call void @llvm.lifetime.start.p0(i64 4, ptr %17) #13
  store i32 0, ptr %17, align 4
  call void @llvm.lifetime.start.p0(i64 4, ptr %18) #13
  store i32 0, ptr %18, align 4
  br label %61

61:                                               ; preds = %187, %4
  %62 = load i64, ptr %15, align 8
  %63 = icmp ne i64 %62, 0
  br i1 %63, label %65, label %64

64:                                               ; preds = %61
  store i32 2, ptr %19, align 4
  call void @llvm.lifetime.end.p0(i64 4, ptr %18) #13
  br label %192

65:                                               ; preds = %61
  call void @llvm.lifetime.start.p0(i64 1, ptr %20) #13
  %66 = load i64, ptr %15, align 8
  %67 = lshr i64 %66, 56
  %68 = and i64 %67, 255
  %69 = trunc i64 %68 to i8
  store i8 %69, ptr %20, align 1
  %70 = load i8, ptr %20, align 1
  %71 = zext i8 %70 to i32
  %72 = icmp eq i32 %71, 0
  br i1 %72, label %73, label %74

73:                                               ; preds = %65
  store i32 4, ptr %19, align 4
  br label %184

74:                                               ; preds = %65
  call void @llvm.lifetime.start.p0(i64 4, ptr %21) #13
  store i32 1, ptr %21, align 4
  br label %75

75:                                               ; preds = %175, %74
  %76 = load i8, ptr %20, align 1
  %77 = zext i8 %76 to i32
  %78 = icmp ne i32 %77, 0
  br i1 %78, label %80, label %79

79:                                               ; preds = %75
  store i32 5, ptr %19, align 4
  br label %182

80:                                               ; preds = %75
  call void @llvm.lifetime.start.p0(i64 1, ptr %22) #13
  %81 = load i8, ptr %20, align 1
  %82 = zext i8 %81 to i32
  %83 = and i32 %82, 3
  %84 = trunc i32 %83 to i8
  store i8 %84, ptr %22, align 1
  call void @llvm.lifetime.start.p0(i64 4, ptr %23) #13
  %85 = load i32, ptr %18, align 4
  %86 = load i32, ptr %21, align 4
  %87 = add i32 %85, %86
  store i32 %87, ptr %23, align 4
  %88 = load i8, ptr %22, align 1
  %89 = zext i8 %88 to i32
  %90 = icmp eq i32 %89, 0
  br i1 %90, label %91, label %92

91:                                               ; preds = %80
  store i32 7, ptr %19, align 4
  br label %172

92:                                               ; preds = %80
  call void @llvm.lifetime.start.p0(i64 8, ptr %24) #13
  %93 = load i8, ptr %12, align 1, !range !8, !noundef !9
  %94 = trunc i8 %93 to i1
  br i1 %94, label %95, label %96

95:                                               ; preds = %92
  br label %100

96:                                               ; preds = %92
  %97 = load i8, ptr %11, align 1, !range !8, !noundef !9
  %98 = trunc i8 %97 to i1
  %99 = select i1 %98, ptr @dissect_pfcp_nokia_detailed_statistics.egress_queue_names, ptr @dissect_pfcp_nokia_detailed_statistics.ingress_queue_names
  br label %100

100:                                              ; preds = %96, %95
  %101 = phi ptr [ @dissect_pfcp_nokia_detailed_statistics.policer_names, %95 ], [ %99, %96 ]
  store ptr %101, ptr %24, align 8
  call void @llvm.lifetime.start.p0(i64 8, ptr %25) #13
  %102 = load i32, ptr %23, align 4
  %103 = load ptr, ptr %24, align 8
  %104 = call ptr @val_to_str(i32 noundef %102, ptr noundef %103, ptr noundef @.str.2778)
  store ptr %104, ptr %25, align 8
  call void @llvm.lifetime.start.p0(i64 4, ptr %26) #13
  %105 = load i32, ptr %16, align 4
  %106 = load i32, ptr %18, align 4
  %107 = sdiv i32 %106, 4
  %108 = add i32 %105, %107
  %109 = add i32 %108, 1
  %110 = mul i32 8, %109
  %111 = load i32, ptr %21, align 4
  %112 = mul i32 2, %111
  %113 = sub i32 %110, %112
  store i32 %113, ptr %26, align 4
  call void @llvm.lifetime.start.p0(i64 8, ptr %27) #13
  %114 = load ptr, ptr %14, align 8
  %115 = load i32, ptr @hf_pfcp_nokia_detailed_stats_bitmap_item, align 4
  %116 = load ptr, ptr %5, align 8
  %117 = load i32, ptr %26, align 4
  %118 = call ptr @proto_tree_add_bits_item(ptr noundef %114, i32 noundef %115, ptr noundef %116, i32 noundef %117, i32 noundef 2, i32 noundef 0)
  store ptr %118, ptr %27, align 8
  %119 = load ptr, ptr %27, align 8
  %120 = load ptr, ptr %25, align 8
  %121 = load i32, ptr %23, align 4
  call void (ptr, ptr, ...) @proto_item_append_text(ptr noundef %119, ptr noundef @.str.2779, ptr noundef %120, i32 noundef %121)
  %122 = load i8, ptr %22, align 1
  %123 = zext i8 %122 to i32
  %124 = icmp eq i32 %123, 3
  br i1 %124, label %125, label %131

125:                                              ; preds = %100
  %126 = load ptr, ptr %7, align 8
  %127 = load ptr, ptr %6, align 8
  %128 = load ptr, ptr %5, align 8
  %129 = load i32, ptr %16, align 4
  %130 = call ptr @proto_tree_add_expert(ptr noundef %126, ptr noundef %127, ptr noundef @ei_pfcp_ie_encoding_error, ptr noundef %128, i32 noundef %129, i32 noundef 8)
  store i32 5, ptr %19, align 4
  br label %171

131:                                              ; preds = %100
  call void @llvm.lifetime.start.p0(i64 4, ptr %28) #13
  %132 = load i8, ptr %22, align 1
  %133 = zext i8 %132 to i32
  %134 = icmp eq i32 %133, 1
  %135 = select i1 %134, i32 4, i32 8
  store i32 %135, ptr %28, align 4
  %136 = load i32, ptr %9, align 4
  %137 = icmp sgt i32 %136, 0
  br i1 %137, label %138, label %155

138:                                              ; preds = %131
  %139 = load i32, ptr %9, align 4
  %140 = load i32, ptr %28, align 4
  %141 = add i32 %139, %140
  %142 = load ptr, ptr %5, align 8
  %143 = call i32 @tvb_reported_length(ptr noundef %142)
  %144 = icmp ugt i32 %141, %143
  br i1 %144, label %145, label %155

145:                                              ; preds = %138
  %146 = load ptr, ptr %7, align 8
  %147 = load ptr, ptr %6, align 8
  %148 = load ptr, ptr %5, align 8
  %149 = load i32, ptr %9, align 4
  %150 = load ptr, ptr %5, align 8
  %151 = call i32 @tvb_reported_length(ptr noundef %150)
  %152 = load i32, ptr %9, align 4
  %153 = sub i32 %151, %152
  %154 = call ptr @proto_tree_add_expert(ptr noundef %146, ptr noundef %147, ptr noundef @ei_pfcp_ie_encoding_error, ptr noundef %148, i32 noundef %149, i32 noundef %153)
  store i32 5, ptr %19, align 4
  br label %170

155:                                              ; preds = %138, %131
  call void @llvm.lifetime.start.p0(i64 8, ptr %29) #13
  %156 = load ptr, ptr %7, align 8
  %157 = load i32, ptr @hf_pfcp_nokia_detailed_stats_octets, align 4
  %158 = load ptr, ptr %5, align 8
  %159 = load i32, ptr %9, align 4
  %160 = load i32, ptr %28, align 4
  %161 = call ptr @proto_tree_add_item_ret_uint64(ptr noundef %156, i32 noundef %157, ptr noundef %158, i32 noundef %159, i32 noundef %160, i32 noundef 0, ptr noundef %29)
  store ptr %161, ptr %27, align 8
  %162 = load ptr, ptr %27, align 8
  %163 = load ptr, ptr %25, align 8
  %164 = load i64, ptr %29, align 8
  call void (ptr, ptr, ...) @proto_item_set_text(ptr noundef %162, ptr noundef @.str.2780, ptr noundef %163, i64 noundef %164)
  %165 = load i32, ptr %17, align 4
  %166 = add i32 %165, 1
  store i32 %166, ptr %17, align 4
  %167 = load i32, ptr %28, align 4
  %168 = load i32, ptr %9, align 4
  %169 = add i32 %168, %167
  store i32 %169, ptr %9, align 4
  call void @llvm.lifetime.end.p0(i64 8, ptr %29) #13
  store i32 0, ptr %19, align 4
  br label %170

170:                                              ; preds = %155, %145
  call void @llvm.lifetime.end.p0(i64 4, ptr %28) #13
  br label %171

171:                                              ; preds = %170, %125
  call void @llvm.lifetime.end.p0(i64 8, ptr %27) #13
  call void @llvm.lifetime.end.p0(i64 4, ptr %26) #13
  call void @llvm.lifetime.end.p0(i64 8, ptr %25) #13
  call void @llvm.lifetime.end.p0(i64 8, ptr %24) #13
  br label %172

172:                                              ; preds = %171, %91
  call void @llvm.lifetime.end.p0(i64 4, ptr %23) #13
  call void @llvm.lifetime.end.p0(i64 1, ptr %22) #13
  %173 = load i32, ptr %19, align 4
  switch i32 %173, label %182 [
    i32 0, label %174
    i32 7, label %175
  ]

174:                                              ; preds = %172
  br label %175

175:                                              ; preds = %174, %172
  %176 = load i8, ptr %20, align 1
  %177 = zext i8 %176 to i32
  %178 = ashr i32 %177, 2
  %179 = trunc i32 %178 to i8
  store i8 %179, ptr %20, align 1
  %180 = load i32, ptr %21, align 4
  %181 = add i32 %180, 1
  store i32 %181, ptr %21, align 4
  br label %75, !llvm.loop !29

182:                                              ; preds = %172, %79
  call void @llvm.lifetime.end.p0(i64 4, ptr %21) #13
  br label %183

183:                                              ; preds = %182
  store i32 0, ptr %19, align 4
  br label %184

184:                                              ; preds = %183, %73
  call void @llvm.lifetime.end.p0(i64 1, ptr %20) #13
  %185 = load i32, ptr %19, align 4
  switch i32 %185, label %218 [
    i32 0, label %186
    i32 4, label %187
  ]

186:                                              ; preds = %184
  br label %187

187:                                              ; preds = %186, %184
  %188 = load i64, ptr %15, align 8
  %189 = shl i64 %188, 8
  store i64 %189, ptr %15, align 8
  %190 = load i32, ptr %18, align 4
  %191 = add i32 %190, 4
  store i32 %191, ptr %18, align 4
  br label %61, !llvm.loop !30

192:                                              ; preds = %64
  %193 = load i32, ptr %17, align 4
  %194 = icmp eq i32 %193, 0
  br i1 %194, label %195, label %197

195:                                              ; preds = %192
  %196 = load ptr, ptr %13, align 8
  call void (ptr, ptr, ...) @proto_item_append_text(ptr noundef %196, ptr noundef @.str.2781)
  br label %197

197:                                              ; preds = %195, %192
  %198 = load ptr, ptr %7, align 8
  %199 = call ptr @proto_tree_get_parent(ptr noundef %198)
  %200 = load i32, ptr %17, align 4
  %201 = load i8, ptr %11, align 1, !range !8, !noundef !9
  %202 = trunc i8 %201 to i1
  %203 = select i1 %202, ptr @.str.2783, ptr @.str.2784
  %204 = load i8, ptr %12, align 1, !range !8, !noundef !9
  %205 = trunc i8 %204 to i1
  %206 = select i1 %205, ptr @.str.2785, ptr @.str.2786
  %207 = load i32, ptr %17, align 4
  %208 = icmp eq i32 %207, 1
  %209 = select i1 %208, ptr @.str.2787, ptr @.str.2788
  %210 = load i64, ptr %10, align 8
  %211 = lshr i64 %210, 16
  %212 = trunc i64 %211 to i32
  %213 = and i32 %212, 63
  %214 = load i64, ptr %10, align 8
  %215 = trunc i64 %214 to i32
  %216 = and i32 %215, 31
  call void (ptr, ptr, ...) @proto_item_append_text(ptr noundef %199, ptr noundef @.str.2782, i32 noundef %200, ptr noundef %203, ptr noundef %206, ptr noundef %209, i32 noundef %213, i32 noundef %216)
  %217 = load i32, ptr %9, align 4
  store i32 1, ptr %19, align 4
  call void @llvm.lifetime.end.p0(i64 4, ptr %17) #13
  call void @llvm.lifetime.end.p0(i64 4, ptr %16) #13
  call void @llvm.lifetime.end.p0(i64 8, ptr %15) #13
  call void @llvm.lifetime.end.p0(i64 8, ptr %14) #13
  call void @llvm.lifetime.end.p0(i64 8, ptr %13) #13
  call void @llvm.lifetime.end.p0(i64 1, ptr %12) #13
  call void @llvm.lifetime.end.p0(i64 1, ptr %11) #13
  call void @llvm.lifetime.end.p0(i64 8, ptr %10) #13
  call void @llvm.lifetime.end.p0(i64 4, ptr %9) #13
  ret i32 %217

218:                                              ; preds = %184
  unreachable
}