; Function Attrs: null_pointer_is_valid sspstrong uwtable
define internal i32 @dissect_pfcp_nokia_detailed_statistics(ptr noundef %0, ptr noundef %1, ptr noundef %2, ptr readnone captures(none) %3) #0 {
  %5 = alloca i64, align 8
  %6 = alloca ptr, align 8
  %7 = alloca i64, align 8
  call void @llvm.lifetime.start.p0(i64 8, ptr nonnull %5) #15
  %8 = load i32, ptr @hf_pfcp_nokia_detailed_stats_key, align 4
  %9 = load i32, ptr @ett_pfcp_nokia_detailed_stats_key, align 4
  %10 = call ptr @proto_tree_add_bitmask_with_flags_ret_uint64(ptr noundef %2, ptr noundef %0, i32 noundef 0, i32 noundef %8, i32 noundef %9, ptr noundef nonnull @dissect_pfcp_nokia_detailed_statistics.key, i32 noundef 0, i32 noundef 0, ptr noundef nonnull %5)
  %11 = load i64, ptr %5, align 8
  %12 = and i64 %11, 2147483648
  %.not = icmp eq i64 %12, 0
  %13 = and i64 %11, 1073741824
  %.not84 = icmp eq i64 %13, 0
  call void @llvm.lifetime.start.p0(i64 8, ptr nonnull %6) #15
  %14 = load i32, ptr @ett_pfcp_nokia_detailed_stats_bitmap, align 4
  %15 = call ptr (ptr, ptr, i32, i32, i32, ptr, ptr, ...) @proto_tree_add_subtree_format(ptr noundef %2, ptr noundef %0, i32 noundef 4, i32 noundef 8, i32 noundef %14, ptr noundef nonnull %6, ptr noundef nonnull @.str.2777)
  %16 = call i64 @tvb_get_ntoh64(ptr noundef %0, i32 noundef 4)
  %.not85100 = icmp eq i64 %16, 0
  br i1 %.not85100, label %._crit_edge.thread, label %.lr.ph106

.lr.ph106:                                        ; preds = %4
  %17 = select i1 %.not, ptr @dissect_pfcp_nokia_detailed_statistics.ingress_queue_names, ptr @dissect_pfcp_nokia_detailed_statistics.egress_queue_names
  %18 = select i1 %.not84, ptr %17, ptr @dissect_pfcp_nokia_detailed_statistics.policer_names
  br label %20

._crit_edge:                                      ; preds = %.thread
  %19 = icmp eq i32 %.170, 0
  br i1 %19, label %._crit_edge.thread, label %61

20:                                               ; preds = %.lr.ph106, %.thread
  %.0105 = phi i32 [ 12, %.lr.ph106 ], [ %.1, %.thread ]
  %.068104 = phi i64 [ %16, %.lr.ph106 ], [ %58, %.thread ]
  %.069103 = phi i32 [ 0, %.lr.ph106 ], [ %.170, %.thread ]
  %.076101 = phi i32 [ 0, %.lr.ph106 ], [ %59, %.thread ]
  %21 = icmp ult i64 %.068104, 72057594037927936
  br i1 %21, label %.thread, label %.lr.ph

.lr.ph:                                           ; preds = %20
  %22 = lshr i64 %.068104, 56
  %23 = trunc nuw nsw i64 %22 to i32
  %24 = shl nuw i32 %.076101, 1
  %25 = add nuw nsw i32 %24, 40
  br label %26

26:                                               ; preds = %.lr.ph, %55
  %.298 = phi i32 [ %.0105, %.lr.ph ], [ %.4, %55 ]
  %.27197 = phi i32 [ %.069103, %.lr.ph ], [ %.473, %55 ]
  %.08096 = phi i32 [ %23, %.lr.ph ], [ %56, %55 ]
  %.08195 = phi i32 [ 1, %.lr.ph ], [ %57, %55 ]
  %27 = and i32 %.08096, 3
  %28 = icmp eq i32 %27, 0
  br i1 %28, label %55, label %29

29:                                               ; preds = %26
  %30 = add nuw nsw i32 %.08195, %.076101
  %31 = call ptr @val_to_str(i32 noundef %30, ptr noundef nonnull %18, ptr noundef nonnull @.str.2778)
  %32 = shl nuw i32 %.08195, 1
  %33 = sub nsw i32 %25, %32
  %34 = load i32, ptr @hf_pfcp_nokia_detailed_stats_bitmap_item, align 4
  %35 = call ptr @proto_tree_add_bits_item(ptr noundef %15, i32 noundef %34, ptr noundef %0, i32 noundef %33, i32 noundef 2, i32 noundef 0)
  call void (ptr, ptr, ...) @proto_item_append_text(ptr noundef %35, ptr noundef nonnull @.str.2779, ptr noundef %31, i32 noundef %30)
  %36 = icmp eq i32 %27, 3
  br i1 %36, label %37, label %39

37:                                               ; preds = %29
  %38 = call ptr @proto_tree_add_expert(ptr noundef %2, ptr noundef %1, ptr noundef nonnull @ei_pfcp_ie_encoding_error, ptr noundef %0, i32 noundef 4, i32 noundef 8)
  br label %.thread

39:                                               ; preds = %29
  %40 = icmp eq i32 %27, 1
  %41 = select i1 %40, i32 4, i32 8
  %42 = icmp sgt i32 %.298, 0
  %43 = add i32 %41, %.298
  br i1 %42, label %44, label %._crit_edge114

44:                                               ; preds = %39
  %45 = call i32 @tvb_reported_length(ptr noundef %0)
  %46 = icmp ugt i32 %43, %45
  br i1 %46, label %47, label %._crit_edge114

47:                                               ; preds = %44
  %48 = call i32 @tvb_reported_length(ptr noundef %0)
  %49 = sub i32 %48, %.298
  %50 = call ptr @proto_tree_add_expert(ptr noundef %2, ptr noundef %1, ptr noundef nonnull @ei_pfcp_ie_encoding_error, ptr noundef %0, i32 noundef %.298, i32 noundef %49)
  br label %.thread

._crit_edge114:                                   ; preds = %39, %44
  call void @llvm.lifetime.start.p0(i64 8, ptr nonnull %7) #15
  %51 = load i32, ptr @hf_pfcp_nokia_detailed_stats_octets, align 4
  %52 = call ptr @proto_tree_add_item_ret_uint64(ptr noundef %2, i32 noundef %51, ptr noundef %0, i32 noundef %.298, i32 noundef %41, i32 noundef 0, ptr noundef nonnull %7)
  %53 = load i64, ptr %7, align 8
  call void (ptr, ptr, ...) @proto_item_set_text(ptr noundef %52, ptr noundef nonnull @.str.2780, ptr noundef %31, i64 noundef %53)
  %54 = add i32 %.27197, 1
  call void @llvm.lifetime.end.p0(i64 8, ptr nonnull %7) #15
  br label %55

55:                                               ; preds = %26, %._crit_edge114
  %.473 = phi i32 [ %.27197, %26 ], [ %54, %._crit_edge114 ]
  %.4 = phi i32 [ %.298, %26 ], [ %43, %._crit_edge114 ]
  %56 = lshr i32 %.08096, 2
  %57 = add nuw nsw i32 %.08195, 1
  %.not86 = icmp samesign ult i32 %.08096, 4
  br i1 %.not86, label %.thread, label %26, !llvm.loop !29

.thread:                                          ; preds = %55, %47, %37, %20
  %.170 = phi i32 [ %.069103, %20 ], [ %.27197, %37 ], [ %.27197, %47 ], [ %.473, %55 ]
  %.1 = phi i32 [ %.0105, %20 ], [ %.298, %37 ], [ %.298, %47 ], [ %.4, %55 ]
  %58 = shl i64 %.068104, 8
  %59 = add nuw nsw i32 %.076101, 4
  %.not85 = icmp eq i64 %58, 0
  br i1 %.not85, label %._crit_edge, label %20, !llvm.loop !30

._crit_edge.thread:                               ; preds = %4, %._crit_edge
  %.0.lcssa120 = phi i32 [ %.1, %._crit_edge ], [ 12, %4 ]
  %60 = load ptr, ptr %6, align 8
  call void (ptr, ptr, ...) @proto_item_append_text(ptr noundef %60, ptr noundef nonnull @.str.2781)
  br label %61

61:                                               ; preds = %._crit_edge.thread, %._crit_edge
  %.0.lcssa119 = phi i32 [ %.0.lcssa120, %._crit_edge.thread ], [ %.1, %._crit_edge ]
  %.069.lcssa117 = phi i32 [ 0, %._crit_edge.thread ], [ %.170, %._crit_edge ]
  %62 = call ptr @proto_tree_get_parent(ptr noundef %2)
  %63 = select i1 %.not, ptr @.str.2784, ptr @.str.2783
  %64 = select i1 %.not84, ptr @.str.2786, ptr @.str.2785
  %65 = icmp eq i32 %.069.lcssa117, 1
  %66 = select i1 %65, ptr @.str.2787, ptr @.str.2788
  %67 = load i64, ptr %5, align 8
  %68 = trunc i64 %67 to i32
  %69 = lshr i32 %68, 16
  %70 = and i32 %69, 63
  %71 = and i32 %68, 31
  call void (ptr, ptr, ...) @proto_item_append_text(ptr noundef %62, ptr noundef nonnull @.str.2782, i32 noundef %.069.lcssa117, ptr noundef nonnull %63, ptr noundef nonnull %64, ptr noundef nonnull %66, i32 noundef %70, i32 noundef %71)
  call void @llvm.lifetime.end.p0(i64 8, ptr nonnull %6) #15
  call void @llvm.lifetime.end.p0(i64 8, ptr nonnull %5) #15
  ret i32 %.0.lcssa119
}